target datalayout = "e-m:e-p270:32:32-p271:32:32-p272:64:64-i64:64-i128:128-f80:128-n8:16:32:64-S128"
target triple = "x86_64-pc-linux-gnu"

%struct.expert_field = type { i32, i32 }
%struct.isis_data = type { i8, i8, i16, ptr, ptr }

@hf_isis_hello_adjacency_state = internal global i32 0, align 4
@hf_isis_hello_extended_local_circuit_id = internal global i32 0, align 4
@hf_isis_hello_neighbor_systemid = internal global i32 0, align 4
@hf_isis_hello_neighbor_extended_local_circuit_id = internal global i32 0, align 4
@ei_isis_hello_short_clv = internal global %struct.expert_field zeroinitializer, align 4
@.str.216 = private unnamed_addr constant [32 x i8] c"malformed TLV (%d vs 1,5,11,15)\00", align 1

; Function Attrs: null_pointer_is_valid sspstrong uwtable
define internal void @dissect_hello_ptp_adj_clv(ptr noundef %0, ptr noundef %1, ptr noundef %2, i32 noundef %3, ptr noundef %4, i32 noundef %5) #0 {
  %7 = alloca ptr, align 8
  %8 = alloca ptr, align 8
  %9 = alloca ptr, align 8
  %10 = alloca i32, align 4
  %11 = alloca ptr, align 8
  %12 = alloca i32, align 4
  store ptr %0, ptr %7, align 8
  store ptr %1, ptr %8, align 8
  store ptr %2, ptr %9, align 8
  store i32 %3, ptr %10, align 4
  store ptr %4, ptr %11, align 8
  store i32 %5, ptr %12, align 4
  %13 = load i32, ptr %12, align 4
  switch i32 %13, label %87 [
    i32 1, label %14
    i32 5, label %20
    i32 11, label %32
    i32 15, label %54
  ]

14:                                               ; preds = %6
  %15 = load ptr, ptr %9, align 8
  %16 = load i32, ptr @hf_isis_hello_adjacency_state, align 4
  %17 = load ptr, ptr %7, align 8
  %18 = load i32, ptr %10, align 4
  %19 = call ptr @proto_tree_add_item(ptr noundef %15, i32 noundef %16, ptr noundef %17, i32 noundef %18, i32 noundef 1, i32 noundef 0)
  br label %94

20:                                               ; preds = %6
  %21 = load ptr, ptr %9, align 8
  %22 = load i32, ptr @hf_isis_hello_adjacency_state, align 4
  %23 = load ptr, ptr %7, align 8
  %24 = load i32, ptr %10, align 4
  %25 = call ptr @proto_tree_add_item(ptr noundef %21, i32 noundef %22, ptr noundef %23, i32 noundef %24, i32 noundef 1, i32 noundef 0)
  %26 = load ptr, ptr %9, align 8
  %27 = load i32, ptr @hf_isis_hello_extended_local_circuit_id, align 4
  %28 = load ptr, ptr %7, align 8
  %29 = load i32, ptr %10, align 4
  %30 = add i32 %29, 1
  %31 = call ptr @proto_tree_add_item(ptr noundef %26, i32 noundef %27, ptr noundef %28, i32 noundef %30, i32 noundef 4, i32 noundef 0)
  br label %94

32:                                               ; preds = %6
  %33 = load ptr, ptr %9, align 8
  %34 = load i32, ptr @hf_isis_hello_adjacency_state, align 4
  %35 = load ptr, ptr %7, align 8
  %36 = load i32, ptr %10, align 4
  %37 = call ptr @proto_tree_add_item(ptr noundef %33, i32 noundef %34, ptr noundef %35, i32 noundef %36, i32 noundef 1, i32 noundef 0)
  %38 = load ptr, ptr %9, align 8
  %39 = load i32, ptr @hf_isis_hello_extended_local_circuit_id, align 4
  %40 = load ptr, ptr %7, align 8
  %41 = load i32, ptr %10, align 4
  %42 = add i32 %41, 1
  %43 = call ptr @proto_tree_add_item(ptr noundef %38, i32 noundef %39, ptr noundef %40, i32 noundef %42, i32 noundef 4, i32 noundef 0)
  %44 = load ptr, ptr %9, align 8
  %45 = load i32, ptr @hf_isis_hello_neighbor_systemid, align 4
  %46 = load ptr, ptr %7, align 8
  %47 = load i32, ptr %10, align 4
  %48 = add i32 %47, 5
  %49 = load ptr, ptr %11, align 8
  %50 = getelementptr inbounds nuw %struct.isis_data, ptr %49, i32 0, i32 1
  %51 = load i8, ptr %50, align 1
  %52 = zext i8 %51 to i32
  %53 = call ptr @proto_tree_add_item(ptr noundef %44, i32 noundef %45, ptr noundef %46, i32 noundef %48, i32 noundef %52, i32 noundef 0)
  br label %94

54:                                               ; preds = %6
  %55 = load ptr, ptr %9, align 8
  %56 = load i32, ptr @hf_isis_hello_adjacency_state, align 4
  %57 = load ptr, ptr %7, align 8
  %58 = load i32, ptr %10, align 4
  %59 = call ptr @proto_tree_add_item(ptr noundef %55, i32 noundef %56, ptr noundef %57, i32 noundef %58, i32 noundef 1, i32 noundef 0)
  %60 = load ptr, ptr %9, align 8
  %61 = load i32, ptr @hf_isis_hello_extended_local_circuit_id, align 4
  %62 = load ptr, ptr %7, align 8
  %63 = load i32, ptr %10, align 4
  %64 = add i32 %63, 1
  %65 = call ptr @proto_tree_add_item(ptr noundef %60, i32 noundef %61, ptr noundef %62, i32 noundef %64, i32 noundef 4, i32 noundef 0)
  %66 = load ptr, ptr %9, align 8
  %67 = load i32, ptr @hf_isis_hello_neighbor_systemid, align 4
  %68 = load ptr, ptr %7, align 8
  %69 = load i32, ptr %10, align 4
  %70 = add i32 %69, 5
  %71 = load ptr, ptr %11, align 8
  %72 = getelementptr inbounds nuw %struct.isis_data, ptr %71, i32 0, i32 1
  %73 = load i8, ptr %72, align 1
  %74 = zext i8 %73 to i32
  %75 = call ptr @proto_tree_add_item(ptr noundef %66, i32 noundef %67, ptr noundef %68, i32 noundef %70, i32 noundef %74, i32 noundef 0)
  %76 = load ptr, ptr %9, align 8
  %77 = load i32, ptr @hf_isis_hello_neighbor_extended_local_circuit_id, align 4
  %78 = load ptr, ptr %7, align 8
  %79 = load i32, ptr %10, align 4
  %80 = add i32 %79, 5
  %81 = load ptr, ptr %11, align 8
  %82 = getelementptr inbounds nuw %struct.isis_data, ptr %81, i32 0, i32 1
  %83 = load i8, ptr %82, align 1
  %84 = zext i8 %83 to i32
  %85 = add i32 %80, %84
  %86 = call ptr @proto_tree_add_item(ptr noundef %76, i32 noundef %77, ptr noundef %78, i32 noundef %85, i32 noundef 4, i32 noundef 0)
  br label %94

87:                                               ; preds = %6
  %88 = load ptr, ptr %9, align 8
  %89 = load ptr, ptr %8, align 8
  %90 = load ptr, ptr %7, align 8
  %91 = load i32, ptr %10, align 4
  %92 = load i32, ptr %12, align 4
  %93 = call ptr (ptr, ptr, ptr, ptr, i32, i32, ptr, ...) @proto_tree_add_expert_format(ptr noundef %88, ptr noundef %89, ptr noundef @ei_isis_hello_short_clv, ptr noundef %90, i32 noundef %91, i32 noundef -1, ptr noundef @.str.216, i32 noundef %92)
  br label %94

94:                                               ; preds = %87, %54, %32, %20, %14
  ret void
}