; Function Attrs: null_pointer_is_valid sspstrong uwtable
define internal void @dissect_hello_ptp_adj_clv(ptr noundef %0, ptr noundef %1, ptr noundef %2, i32 noundef %3, ptr noundef readonly captures(none) %4, i32 noundef %5) #0 {
  %7 = add i32 %5, -1
  %8 = tail call i32 @llvm.fshl.i32(i32 %7, i32 %7, i32 31)
  switch i32 %8, label %47 [
    i32 0, label %9
    i32 2, label %12
    i32 5, label %18
    i32 7, label %30
  ]

9:                                                ; preds = %6
  %10 = load i32, ptr @hf_isis_hello_adjacency_state, align 4
  %11 = tail call ptr @proto_tree_add_item(ptr noundef %2, i32 noundef %10, ptr noundef %0, i32 noundef %3, i32 noundef 1, i32 noundef 0)
  br label %49

12:                                               ; preds = %6
  %13 = load i32, ptr @hf_isis_hello_adjacency_state, align 4
  %14 = tail call ptr @proto_tree_add_item(ptr noundef %2, i32 noundef %13, ptr noundef %0, i32 noundef %3, i32 noundef 1, i32 noundef 0)
  %15 = load i32, ptr @hf_isis_hello_extended_local_circuit_id, align 4
  %16 = add i32 %3, 1
  %17 = tail call ptr @proto_tree_add_item(ptr noundef %2, i32 noundef %15, ptr noundef %0, i32 noundef %16, i32 noundef 4, i32 noundef 0)
  br label %49

18:                                               ; preds = %6
  %19 = load i32, ptr @hf_isis_hello_adjacency_state, align 4
  %20 = tail call ptr @proto_tree_add_item(ptr noundef %2, i32 noundef %19, ptr noundef %0, i32 noundef %3, i32 noundef 1, i32 noundef 0)
  %21 = load i32, ptr @hf_isis_hello_extended_local_circuit_id, align 4
  %22 = add i32 %3, 1
  %23 = tail call ptr @proto_tree_add_item(ptr noundef %2, i32 noundef %21, ptr noundef %0, i32 noundef %22, i32 noundef 4, i32 noundef 0)
  %24 = load i32, ptr @hf_isis_hello_neighbor_systemid, align 4
  %25 = add i32 %3, 5
  %26 = getelementptr inbounds nuw i8, ptr %4, i64 1
  %27 = load i8, ptr %26, align 1
  %28 = zext i8 %27 to i32
  %29 = tail call ptr @proto_tree_add_item(ptr noundef %2, i32 noundef %24, ptr noundef %0, i32 noundef %25, i32 noundef %28, i32 noundef 0)
  br label %49

30:                                               ; preds = %6
  %31 = load i32, ptr @hf_isis_hello_adjacency_state, align 4
  %32 = tail call ptr @proto_tree_add_item(ptr noundef %2, i32 noundef %31, ptr noundef %0, i32 noundef %3, i32 noundef 1, i32 noundef 0)
  %33 = load i32, ptr @hf_isis_hello_extended_local_circuit_id, align 4
  %34 = add i32 %3, 1
  %35 = tail call ptr @proto_tree_add_item(ptr noundef %2, i32 noundef %33, ptr noundef %0, i32 noundef %34, i32 noundef 4, i32 noundef 0)
  %36 = load i32, ptr @hf_isis_hello_neighbor_systemid, align 4
  %37 = add i32 %3, 5
  %38 = getelementptr inbounds nuw i8, ptr %4, i64 1
  %39 = load i8, ptr %38, align 1
  %40 = zext i8 %39 to i32
  %41 = tail call ptr @proto_tree_add_item(ptr noundef %2, i32 noundef %36, ptr noundef %0, i32 noundef %37, i32 noundef %40, i32 noundef 0)
  %42 = load i32, ptr @hf_isis_hello_neighbor_extended_local_circuit_id, align 4
  %43 = load i8, ptr %38, align 1
  %44 = zext i8 %43 to i32
  %45 = add i32 %37, %44
  %46 = tail call ptr @proto_tree_add_item(ptr noundef %2, i32 noundef %42, ptr noundef %0, i32 noundef %45, i32 noundef 4, i32 noundef 0)
  br label %49

47:                                               ; preds = %6
  %48 = tail call ptr (ptr, ptr, ptr, ptr, i32, i32, ptr, ...) @proto_tree_add_expert_format(ptr noundef %2, ptr noundef %1, ptr noundef nonnull @ei_isis_hello_short_clv, ptr noundef %0, i32 noundef %3, i32 noundef -1, ptr noundef nonnull @.str.216, i32 noundef %5)
  br label %49

49:                                               ; preds = %47, %30, %18, %12, %9
  ret void
}